target datalayout = "e-m:e-p270:32:32-p271:32:32-p272:64:64-i64:64-i128:128-f80:128-n8:16:32:64-S128"
target triple = "x86_64-pc-linux-gnu"

%struct._zval_struct = type { %union._zend_value, %union.anon, %union.anon.2 }
%union._zend_value = type { i64 }
%union.anon = type { i32 }
%union.anon.2 = type { i32 }
%struct._zend_refcounted_h = type { i32, %union.anon.3 }
%union.anon.3 = type { i32 }
%struct._zend_object = type { %struct._zend_refcounted_h, i32, ptr, ptr, ptr, [1 x %struct._zval_struct] }
%struct._zend_execute_data = type { ptr, ptr, ptr, ptr, %struct._zval_struct, ptr, ptr, ptr, ptr }
%struct._zend_string = type { %struct._zend_refcounted_h, i64, i64, [1 x i8] }

@zend_known_strings = external global ptr, align 8
@zend_ce_exception = global ptr null, align 8
@zend_ce_error = global ptr null, align 8

; Function Attrs: nounwind uwtable
define internal ptr @i_get_exception_base(ptr noundef %0) #0 {
  %2 = alloca ptr, align 8
  %3 = alloca ptr, align 8
  %4 = alloca ptr, align 8
  store ptr %0, ptr %4, align 8
  %5 = load ptr, ptr %4, align 8
  %6 = getelementptr inbounds %struct._zend_object, ptr %5, i32 0, i32 2
  %7 = load ptr, ptr %6, align 8
  %8 = load ptr, ptr @zend_ce_exception, align 8
  store ptr %7, ptr %2, align 8
  store ptr %8, ptr %3, align 8
  %9 = load ptr, ptr %2, align 8
  %10 = load ptr, ptr %3, align 8
  %11 = icmp eq ptr %9, %10
  br i1 %11, label %16, label %12

12:                                               ; preds = %1
  %13 = load ptr, ptr %2, align 8
  %14 = load ptr, ptr %3, align 8
  %15 = call zeroext i1 @instanceof_function_slow(ptr noundef %13, ptr noundef %14) #12
  br label %16

16:                                               ; preds = %12, %1
  %17 = phi i1 [ true, %1 ], [ %15, %12 ]
  br i1 %17, label %18, label %20

18:                                               ; preds = %16
  %19 = load ptr, ptr @zend_ce_exception, align 8
  br label %22

20:                                               ; preds = %16
  %21 = load ptr, ptr @zend_ce_error, align 8
  br label %22

22:                                               ; preds = %20, %18
  %23 = phi ptr [ %19, %18 ], [ %21, %20 ]
  ret ptr %23
}

; Function Attrs: nounwind uwtable
define hidden void @zim_Exception_getMessage(ptr noundef %0, ptr noundef %1) #0 {
  %3 = alloca ptr, align 8
  %4 = alloca i32, align 4
  %5 = alloca ptr, align 8
  %6 = alloca ptr, align 8
  %7 = alloca ptr, align 8
  %8 = alloca i32, align 4
  %9 = alloca ptr, align 8
  %10 = alloca ptr, align 8
  %11 = alloca ptr, align 8
  %12 = alloca %struct._zval_struct, align 8
  %13 = alloca ptr, align 8
  %14 = alloca ptr, align 8
  store ptr %0, ptr %9, align 8
  store ptr %1, ptr %10, align 8
  br label %15

15:                                               ; preds = %2
  %16 = load ptr, ptr %9, align 8
  %17 = getelementptr inbounds %struct._zend_execute_data, ptr %16, i32 0, i32 4
  %18 = getelementptr inbounds %struct._zval_struct, ptr %17, i32 0, i32 2
  %19 = load i32, ptr %18, align 4
  %20 = icmp ne i32 %19, 0
  %21 = xor i1 %20, true
  %22 = xor i1 %21, true
  %23 = zext i1 %22 to i32
  %24 = sext i32 %23 to i64
  %25 = icmp ne i64 %24, 0
  br i1 %25, label %26, label %27

26:                                               ; preds = %15
  call void @zend_wrong_parameters_none_error()
  br label %89

27:                                               ; preds = %15
  br label %28

28:                                               ; preds = %27
  %29 = load ptr, ptr %9, align 8
  %30 = getelementptr inbounds %struct._zend_execute_data, ptr %29, i32 0, i32 4
  %31 = getelementptr inbounds %struct._zval_struct, ptr %30, i32 0, i32 0
  %32 = load ptr, ptr %31, align 8
  %33 = call ptr @i_get_exception_base(ptr noundef %32)
  %34 = load ptr, ptr %9, align 8
  %35 = getelementptr inbounds %struct._zend_execute_data, ptr %34, i32 0, i32 4
  %36 = getelementptr inbounds %struct._zval_struct, ptr %35, i32 0, i32 0
  %37 = load ptr, ptr %36, align 8
  %38 = load ptr, ptr @zend_known_strings, align 8
  %39 = getelementptr inbounds ptr, ptr %38, i64 25
  %40 = load ptr, ptr %39, align 8
  %41 = call ptr @zend_read_property_ex(ptr noundef %33, ptr noundef %37, ptr noundef %40, i1 noundef zeroext false, ptr noundef %12)
  store ptr %41, ptr %11, align 8
  br label %42

42:                                               ; preds = %28
  br label %43

43:                                               ; preds = %42
  %44 = load ptr, ptr %10, align 8
  store ptr %44, ptr %13, align 8
  %45 = load ptr, ptr %11, align 8
  store ptr %45, ptr %7, align 8
  %46 = load ptr, ptr %7, align 8
  store ptr %46, ptr %6, align 8
  %47 = load ptr, ptr %6, align 8
  %48 = getelementptr inbounds %struct._zval_struct, ptr %47, i32 0, i32 1
  %49 = load i8, ptr %48, align 8
  %50 = zext i8 %49 to i32
  %51 = icmp eq i32 %50, 6
  br i1 %51, label %52, label %69

52:                                               ; preds = %43
  %53 = load ptr, ptr %7, align 8
  %54 = load ptr, ptr %53, align 8
  store ptr %54, ptr %5, align 8
  %55 = load ptr, ptr %5, align 8
  %56 = getelementptr inbounds %struct._zend_refcounted_h, ptr %55, i32 0, i32 1
  %57 = load i32, ptr %56, align 4
  store i32 %57, ptr %4, align 4
  %58 = load i32, ptr %4, align 4
  %59 = and i32 %58, 1008
  %60 = and i32 %59, 64
  %61 = icmp ne i32 %60, 0
  br i1 %61, label %67, label %62

62:                                               ; preds = %52
  %63 = load ptr, ptr %5, align 8
  store ptr %63, ptr %3, align 8
  %64 = load ptr, ptr %3, align 8
  %65 = load i32, ptr %64, align 4
  %66 = add i32 %65, 1
  store i32 %66, ptr %64, align 4
  br label %67

67:                                               ; preds = %62, %52
  %68 = load ptr, ptr %5, align 8
  br label %72

69:                                               ; preds = %43
  %70 = load ptr, ptr %7, align 8
  %71 = call ptr @zval_get_string_func(ptr noundef %70) #12
  br label %72

72:                                               ; preds = %69, %67
  %73 = phi ptr [ %68, %67 ], [ %71, %69 ]
  store ptr %73, ptr %14, align 8
  %74 = load ptr, ptr %14, align 8
  %75 = load ptr, ptr %13, align 8
  %76 = getelementptr inbounds %struct._zval_struct, ptr %75, i32 0, i32 0
  store ptr %74, ptr %76, align 8
  %77 = load ptr, ptr %14, align 8
  %78 = getelementptr inbounds %struct._zend_string, ptr %77, i32 0, i32 0
  %79 = getelementptr inbounds %struct._zend_refcounted_h, ptr %78, i32 0, i32 1
  %80 = load i32, ptr %79, align 4
  store i32 %80, ptr %8, align 4
  %81 = load i32, ptr %8, align 4
  %82 = and i32 %81, 1008
  %83 = and i32 %82, 64
  %84 = icmp ne i32 %83, 0
  %85 = select i1 %84, i32 6, i32 262
  %86 = load ptr, ptr %13, align 8
  %87 = getelementptr inbounds %struct._zval_struct, ptr %86, i32 0, i32 1
  store i32 %85, ptr %87, align 8
  br label %88

88:                                               ; preds = %72
  br label %89

89:                                               ; preds = %88, %26
  ret void
}